target datalayout = "e-m:e-p270:32:32-p271:32:32-p272:64:64-i64:64-i128:128-f80:128-n8:16:32:64-S128"
target triple = "x86_64-pc-linux-gnu"

%struct.Cut_ManStruct_t_ = type { ptr, ptr, ptr, ptr, ptr, ptr, ptr, i32, i32, ptr, ptr, i32, i32, i32, i32, [2 x ptr], [2 x ptr], ptr, ptr, [4 x ptr], ptr, ptr, ptr, ptr, ptr, ptr, i32, i32, i32, i32, i32, i32, i32, i32, i32, i32, i32, i64, i64, i64, i64, i64, i64 }
%struct.Cut_ParamsStruct_t_ = type { i32, i32, i32, i32, i32, i32, i32, i32, i32, i32, i32, i32, i32, i32, i32, i32, i32, i32, i32, i32 }

@.str.2 = private unnamed_addr constant [29 x i8] c"Cut computation statistics:\0A\00", align 1
@.str.3 = private unnamed_addr constant [42 x i8] c"Current cuts      = %8d. (Trivial = %d.)\0A\00", align 1
@.str.4 = private unnamed_addr constant [26 x i8] c"Peak cuts         = %8d.\0A\00", align 1
@.str.5 = private unnamed_addr constant [26 x i8] c"Total allocated   = %8d.\0A\00", align 1
@.str.6 = private unnamed_addr constant [26 x i8] c"Total deallocated = %8d.\0A\00", align 1
@.str.7 = private unnamed_addr constant [26 x i8] c"Cuts filtered     = %8d.\0A\00", align 1
@.str.8 = private unnamed_addr constant [43 x i8] c"Nodes saturated   = %8d. (Max cuts = %d.)\0A\00", align 1
@.str.9 = private unnamed_addr constant [27 x i8] c"Cuts per node     = %8.1f\0A\00", align 1
@.str.10 = private unnamed_addr constant [32 x i8] c"The cut size      = %8d bytes.\0A\00", align 1
@.str.11 = private unnamed_addr constant [31 x i8] c"Peak memory       = %8.2f MB.\0A\00", align 1
@.str.12 = private unnamed_addr constant [26 x i8] c"Total nodes       = %8d.\0A\00", align 1
@.str.13 = private unnamed_addr constant [26 x i8] c"DAG nodes         = %8d.\0A\00", align 1
@.str.14 = private unnamed_addr constant [26 x i8] c"Tree nodes        = %8d.\0A\00", align 1
@.str.15 = private unnamed_addr constant [26 x i8] c"Nodes w/o cuts    = %8d.\0A\00", align 1
@.str.16 = private unnamed_addr constant [26 x i8] c"Mapping delay     = %8d.\0A\00", align 1
@.str.17 = private unnamed_addr constant [5 x i8] c"%s =\00", align 1
@.str.18 = private unnamed_addr constant [7 x i8] c"Merge \00", align 1
@.str.19 = private unnamed_addr constant [11 x i8] c"%9.2f sec\0A\00", align 1
@.str.20 = private unnamed_addr constant [7 x i8] c"Union \00", align 1
@.str.21 = private unnamed_addr constant [7 x i8] c"Filter\00", align 1
@.str.22 = private unnamed_addr constant [7 x i8] c"Truth \00", align 1
@.str.23 = private unnamed_addr constant [7 x i8] c"Map   \00", align 1

; Function Attrs: nounwind uwtable
define void @Cut_ManPrintStats(ptr noundef %0) #0 {
  %2 = alloca ptr, align 8
  store ptr %0, ptr %2, align 8, !tbaa !8
  %3 = load ptr, ptr %2, align 8, !tbaa !8
  %4 = getelementptr inbounds nuw %struct.Cut_ManStruct_t_, ptr %3, i32 0, i32 9
  %5 = load ptr, ptr %4, align 8, !tbaa !57
  %6 = icmp ne ptr %5, null
  br i1 %6, label %7, label %14

7:                                                ; preds = %1
  %8 = load ptr, ptr %2, align 8, !tbaa !8
  %9 = load ptr, ptr %2, align 8, !tbaa !8
  %10 = getelementptr inbounds nuw %struct.Cut_ManStruct_t_, ptr %9, i32 0, i32 9
  %11 = load ptr, ptr %10, align 8, !tbaa !57
  call void @Cut_CutRecycle(ptr noundef %8, ptr noundef %11)
  %12 = load ptr, ptr %2, align 8, !tbaa !8
  %13 = getelementptr inbounds nuw %struct.Cut_ManStruct_t_, ptr %12, i32 0, i32 9
  store ptr null, ptr %13, align 8, !tbaa !57
  br label %14

14:                                               ; preds = %7, %1
  %15 = call i32 (ptr, ...) @printf(ptr noundef @.str.2)
  %16 = load ptr, ptr %2, align 8, !tbaa !8
  %17 = getelementptr inbounds nuw %struct.Cut_ManStruct_t_, ptr %16, i32 0, i32 27
  %18 = load i32, ptr %17, align 4, !tbaa !58
  %19 = load ptr, ptr %2, align 8, !tbaa !8
  %20 = getelementptr inbounds nuw %struct.Cut_ManStruct_t_, ptr %19, i32 0, i32 31
  %21 = load i32, ptr %20, align 4, !tbaa !59
  %22 = sub nsw i32 %18, %21
  %23 = load ptr, ptr %2, align 8, !tbaa !8
  %24 = getelementptr inbounds nuw %struct.Cut_ManStruct_t_, ptr %23, i32 0, i32 31
  %25 = load i32, ptr %24, align 4, !tbaa !59
  %26 = call i32 (ptr, ...) @printf(ptr noundef @.str.3, i32 noundef %22, i32 noundef %25)
  %27 = load ptr, ptr %2, align 8, !tbaa !8
  %28 = getelementptr inbounds nuw %struct.Cut_ManStruct_t_, ptr %27, i32 0, i32 30
  %29 = load i32, ptr %28, align 8, !tbaa !60
  %30 = call i32 (ptr, ...) @printf(ptr noundef @.str.4, i32 noundef %29)
  %31 = load ptr, ptr %2, align 8, !tbaa !8
  %32 = getelementptr inbounds nuw %struct.Cut_ManStruct_t_, ptr %31, i32 0, i32 28
  %33 = load i32, ptr %32, align 8, !tbaa !61
  %34 = call i32 (ptr, ...) @printf(ptr noundef @.str.5, i32 noundef %33)
  %35 = load ptr, ptr %2, align 8, !tbaa !8
  %36 = getelementptr inbounds nuw %struct.Cut_ManStruct_t_, ptr %35, i32 0, i32 29
  %37 = load i32, ptr %36, align 4, !tbaa !62
  %38 = call i32 (ptr, ...) @printf(ptr noundef @.str.6, i32 noundef %37)
  %39 = load ptr, ptr %2, align 8, !tbaa !8
  %40 = getelementptr inbounds nuw %struct.Cut_ManStruct_t_, ptr %39, i32 0, i32 32
  %41 = load i32, ptr %40, align 8, !tbaa !63
  %42 = call i32 (ptr, ...) @printf(ptr noundef @.str.7, i32 noundef %41)
  %43 = load ptr, ptr %2, align 8, !tbaa !8
  %44 = getelementptr inbounds nuw %struct.Cut_ManStruct_t_, ptr %43, i32 0, i32 33
  %45 = load i32, ptr %44, align 4, !tbaa !64
  %46 = load ptr, ptr %2, align 8, !tbaa !8
  %47 = getelementptr inbounds nuw %struct.Cut_ManStruct_t_, ptr %46, i32 0, i32 0
  %48 = load ptr, ptr %47, align 8, !tbaa !10
  %49 = getelementptr inbounds nuw %struct.Cut_ParamsStruct_t_, ptr %48, i32 0, i32 1
  %50 = load i32, ptr %49, align 4, !tbaa !65
  %51 = call i32 (ptr, ...) @printf(ptr noundef @.str.8, i32 noundef %45, i32 noundef %50)
  %52 = load ptr, ptr %2, align 8, !tbaa !8
  %53 = getelementptr inbounds nuw %struct.Cut_ManStruct_t_, ptr %52, i32 0, i32 27
  %54 = load i32, ptr %53, align 4, !tbaa !58
  %55 = load ptr, ptr %2, align 8, !tbaa !8
  %56 = getelementptr inbounds nuw %struct.Cut_ManStruct_t_, ptr %55, i32 0, i32 31
  %57 = load i32, ptr %56, align 4, !tbaa !59
  %58 = sub nsw i32 %54, %57
  %59 = sitofp i32 %58 to float
  %60 = load ptr, ptr %2, align 8, !tbaa !8
  %61 = getelementptr inbounds nuw %struct.Cut_ManStruct_t_, ptr %60, i32 0, i32 34
  %62 = load i32, ptr %61, align 8, !tbaa !66
  %63 = sitofp i32 %62 to float
  %64 = fdiv float %59, %63
  %65 = fpext float %64 to double
  %66 = call i32 (ptr, ...) @printf(ptr noundef @.str.9, double noundef %65)
  %67 = load ptr, ptr %2, align 8, !tbaa !8
  %68 = getelementptr inbounds nuw %struct.Cut_ManStruct_t_, ptr %67, i32 0, i32 7
  %69 = load i32, ptr %68, align 8, !tbaa !28
  %70 = call i32 (ptr, ...) @printf(ptr noundef @.str.10, i32 noundef %69)
  %71 = load ptr, ptr %2, align 8, !tbaa !8
  %72 = getelementptr inbounds nuw %struct.Cut_ManStruct_t_, ptr %71, i32 0, i32 30
  %73 = load i32, ptr %72, align 8, !tbaa !60
  %74 = sitofp i32 %73 to float
  %75 = load ptr, ptr %2, align 8, !tbaa !8
  %76 = getelementptr inbounds nuw %struct.Cut_ManStruct_t_, ptr %75, i32 0, i32 7
  %77 = load i32, ptr %76, align 8, !tbaa !28
  %78 = sitofp i32 %77 to float
  %79 = fmul float %74, %78
  %80 = fdiv float %79, 0x4130000000000000
  %81 = fpext float %80 to double
  %82 = call i32 (ptr, ...) @printf(ptr noundef @.str.11, double noundef %81)
  %83 = load ptr, ptr %2, align 8, !tbaa !8
  %84 = getelementptr inbounds nuw %struct.Cut_ManStruct_t_, ptr %83, i32 0, i32 34
  %85 = load i32, ptr %84, align 8, !tbaa !66
  %86 = call i32 (ptr, ...) @printf(ptr noundef @.str.12, i32 noundef %85)
  %87 = load ptr, ptr %2, align 8, !tbaa !8
  %88 = getelementptr inbounds nuw %struct.Cut_ManStruct_t_, ptr %87, i32 0, i32 0
  %89 = load ptr, ptr %88, align 8, !tbaa !10
  %90 = getelementptr inbounds nuw %struct.Cut_ParamsStruct_t_, ptr %89, i32 0, i32 9
  %91 = load i32, ptr %90, align 4, !tbaa !67
  %92 = icmp ne i32 %91, 0
  br i1 %92, label %100, label %93

93:                                               ; preds = %14
  %94 = load ptr, ptr %2, align 8, !tbaa !8
  %95 = getelementptr inbounds nuw %struct.Cut_ManStruct_t_, ptr %94, i32 0, i32 0
  %96 = load ptr, ptr %95, align 8, !tbaa !10
  %97 = getelementptr inbounds nuw %struct.Cut_ParamsStruct_t_, ptr %96, i32 0, i32 10
  %98 = load i32, ptr %97, align 4, !tbaa !68
  %99 = icmp ne i32 %98, 0
  br i1 %99, label %100, label %113

100:                                              ; preds = %93, %14
  %101 = load ptr, ptr %2, align 8, !tbaa !8
  %102 = getelementptr inbounds nuw %struct.Cut_ManStruct_t_, ptr %101, i32 0, i32 35
  %103 = load i32, ptr %102, align 4, !tbaa !69
  %104 = call i32 (ptr, ...) @printf(ptr noundef @.str.13, i32 noundef %103)
  %105 = load ptr, ptr %2, align 8, !tbaa !8
  %106 = getelementptr inbounds nuw %struct.Cut_ManStruct_t_, ptr %105, i32 0, i32 34
  %107 = load i32, ptr %106, align 8, !tbaa !66
  %108 = load ptr, ptr %2, align 8, !tbaa !8
  %109 = getelementptr inbounds nuw %struct.Cut_ManStruct_t_, ptr %108, i32 0, i32 35
  %110 = load i32, ptr %109, align 4, !tbaa !69
  %111 = sub nsw i32 %107, %110
  %112 = call i32 (ptr, ...) @printf(ptr noundef @.str.14, i32 noundef %111)
  br label %113

113:                                              ; preds = %100, %93
  %114 = load ptr, ptr %2, align 8, !tbaa !8
  %115 = getelementptr inbounds nuw %struct.Cut_ManStruct_t_, ptr %114, i32 0, i32 36
  %116 = load i32, ptr %115, align 8, !tbaa !70
  %117 = call i32 (ptr, ...) @printf(ptr noundef @.str.15, i32 noundef %116)
  %118 = load ptr, ptr %2, align 8, !tbaa !8
  %119 = getelementptr inbounds nuw %struct.Cut_ManStruct_t_, ptr %118, i32 0, i32 0
  %120 = load ptr, ptr %119, align 8, !tbaa !10
  %121 = getelementptr inbounds nuw %struct.Cut_ParamsStruct_t_, ptr %120, i32 0, i32 16
  %122 = load i32, ptr %121, align 4, !tbaa !36
  %123 = icmp ne i32 %122, 0
  br i1 %123, label %124, label %136

124:                                              ; preds = %113
  %125 = load ptr, ptr %2, align 8, !tbaa !8
  %126 = getelementptr inbounds nuw %struct.Cut_ManStruct_t_, ptr %125, i32 0, i32 0
  %127 = load ptr, ptr %126, align 8, !tbaa !10
  %128 = getelementptr inbounds nuw %struct.Cut_ParamsStruct_t_, ptr %127, i32 0, i32 7
  %129 = load i32, ptr %128, align 4, !tbaa !21
  %130 = icmp ne i32 %129, 0
  br i1 %130, label %136, label %131

131:                                              ; preds = %124
  %132 = load ptr, ptr %2, align 8, !tbaa !8
  %133 = getelementptr inbounds nuw %struct.Cut_ManStruct_t_, ptr %132, i32 0, i32 26
  %134 = load i32, ptr %133, align 8, !tbaa !71
  %135 = call i32 (ptr, ...) @printf(ptr noundef @.str.16, i32 noundef %134)
  br label %136

136:                                              ; preds = %131, %124, %113
  call void (i32, ptr, ...) @Abc_Print(i32 noundef 1, ptr noundef @.str.17, ptr noundef @.str.18)
  %137 = load ptr, ptr %2, align 8, !tbaa !8
  %138 = getelementptr inbounds nuw %struct.Cut_ManStruct_t_, ptr %137, i32 0, i32 37
  %139 = load i64, ptr %138, align 8, !tbaa !72
  %140 = sitofp i64 %139 to double
  %141 = fmul double 1.000000e+00, %140
  %142 = fdiv double %141, 1.000000e+06
  call void (i32, ptr, ...) @Abc_Print(i32 noundef 1, ptr noundef @.str.19, double noundef %142)
  call void (i32, ptr, ...) @Abc_Print(i32 noundef 1, ptr noundef @.str.17, ptr noundef @.str.20)
  %143 = load ptr, ptr %2, align 8, !tbaa !8
  %144 = getelementptr inbounds nuw %struct.Cut_ManStruct_t_, ptr %143, i32 0, i32 38
  %145 = load i64, ptr %144, align 8, !tbaa !73
  %146 = sitofp i64 %145 to double
  %147 = fmul double 1.000000e+00, %146
  %148 = fdiv double %147, 1.000000e+06
  call void (i32, ptr, ...) @Abc_Print(i32 noundef 1, ptr noundef @.str.19, double noundef %148)
  call void (i32, ptr, ...) @Abc_Print(i32 noundef 1, ptr noundef @.str.17, ptr noundef @.str.21)
  %149 = load ptr, ptr %2, align 8, !tbaa !8
  %150 = getelementptr inbounds nuw %struct.Cut_ManStruct_t_, ptr %149, i32 0, i32 40
  %151 = load i64, ptr %150, align 8, !tbaa !74
  %152 = sitofp i64 %151 to double
  %153 = fmul double 1.000000e+00, %152
  %154 = fdiv double %153, 1.000000e+06
  call void (i32, ptr, ...) @Abc_Print(i32 noundef 1, ptr noundef @.str.19, double noundef %154)
  call void (i32, ptr, ...) @Abc_Print(i32 noundef 1, ptr noundef @.str.17, ptr noundef @.str.22)
  %155 = load ptr, ptr %2, align 8, !tbaa !8
  %156 = getelementptr inbounds nuw %struct.Cut_ManStruct_t_, ptr %155, i32 0, i32 39
  %157 = load i64, ptr %156, align 8, !tbaa !75
  %158 = sitofp i64 %157 to double
  %159 = fmul double 1.000000e+00, %158
  %160 = fdiv double %159, 1.000000e+06
  call void (i32, ptr, ...) @Abc_Print(i32 noundef 1, ptr noundef @.str.19, double noundef %160)
  call void (i32, ptr, ...) @Abc_Print(i32 noundef 1, ptr noundef @.str.17, ptr noundef @.str.23)
  %161 = load ptr, ptr %2, align 8, !tbaa !8
  %162 = getelementptr inbounds nuw %struct.Cut_ManStruct_t_, ptr %161, i32 0, i32 42
  %163 = load i64, ptr %162, align 8, !tbaa !76
  %164 = sitofp i64 %163 to double
  %165 = fmul double 1.000000e+00, %164
  %166 = fdiv double %165, 1.000000e+06
  call void (i32, ptr, ...) @Abc_Print(i32 noundef 1, ptr noundef @.str.19, double noundef %166)
  ret void
}