; Function Attrs: nounwind uwtable
define void @Cut_ManPrintStats(ptr noundef %0) local_unnamed_addr #0 {
  %2 = getelementptr inbounds nuw i8, ptr %0, i64 64
  %3 = load ptr, ptr %2, align 8, !tbaa !51
  %.not = icmp eq ptr %3, null
  br i1 %.not, label %5, label %4

4:                                                ; preds = %1
  tail call void @Cut_CutRecycle(ptr noundef nonnull %0, ptr noundef nonnull %3) #20
  store ptr null, ptr %2, align 8, !tbaa !51
  br label %5

5:                                                ; preds = %4, %1
  %puts = tail call i32 @puts(ptr nonnull dereferenceable(1) @str.1)
  %6 = getelementptr inbounds nuw i8, ptr %0, i64 228
  %7 = load i32, ptr %6, align 4, !tbaa !52
  %8 = getelementptr inbounds nuw i8, ptr %0, i64 244
  %9 = load i32, ptr %8, align 4, !tbaa !53
  %10 = sub nsw i32 %7, %9
  %11 = tail call i32 (ptr, ...) @printf(ptr noundef nonnull dereferenceable(1) @.str.3, i32 noundef %10, i32 noundef %9)
  %12 = getelementptr inbounds nuw i8, ptr %0, i64 240
  %13 = load i32, ptr %12, align 8, !tbaa !54
  %14 = tail call i32 (ptr, ...) @printf(ptr noundef nonnull dereferenceable(1) @.str.4, i32 noundef %13)
  %15 = getelementptr inbounds nuw i8, ptr %0, i64 232
  %16 = load i32, ptr %15, align 8, !tbaa !55
  %17 = tail call i32 (ptr, ...) @printf(ptr noundef nonnull dereferenceable(1) @.str.5, i32 noundef %16)
  %18 = getelementptr inbounds nuw i8, ptr %0, i64 236
  %19 = load i32, ptr %18, align 4, !tbaa !56
  %20 = tail call i32 (ptr, ...) @printf(ptr noundef nonnull dereferenceable(1) @.str.6, i32 noundef %19)
  %21 = getelementptr inbounds nuw i8, ptr %0, i64 248
  %22 = load i32, ptr %21, align 8, !tbaa !57
  %23 = tail call i32 (ptr, ...) @printf(ptr noundef nonnull dereferenceable(1) @.str.7, i32 noundef %22)
  %24 = getelementptr inbounds nuw i8, ptr %0, i64 252
  %25 = load i32, ptr %24, align 4, !tbaa !58
  %26 = load ptr, ptr %0, align 8, !tbaa !3
  %27 = getelementptr inbounds nuw i8, ptr %26, i64 4
  %28 = load i32, ptr %27, align 4, !tbaa !59
  %29 = tail call i32 (ptr, ...) @printf(ptr noundef nonnull dereferenceable(1) @.str.8, i32 noundef %25, i32 noundef %28)
  %30 = load i32, ptr %6, align 4, !tbaa !52
  %31 = load i32, ptr %8, align 4, !tbaa !53
  %32 = sub nsw i32 %30, %31
  %33 = sitofp i32 %32 to float
  %34 = getelementptr inbounds nuw i8, ptr %0, i64 256
  %35 = load i32, ptr %34, align 8, !tbaa !60
  %36 = sitofp i32 %35 to float
  %37 = fdiv float %33, %36
  %38 = fpext float %37 to double
  %39 = tail call i32 (ptr, ...) @printf(ptr noundef nonnull dereferenceable(1) @.str.9, double noundef %38)
  %40 = getelementptr inbounds nuw i8, ptr %0, i64 56
  %41 = load i32, ptr %40, align 8, !tbaa !32
  %42 = tail call i32 (ptr, ...) @printf(ptr noundef nonnull dereferenceable(1) @.str.10, i32 noundef %41)
  %43 = load i32, ptr %12, align 8, !tbaa !54
  %44 = sitofp i32 %43 to float
  %45 = load i32, ptr %40, align 8, !tbaa !32
  %46 = sitofp i32 %45 to float
  %47 = fmul float %44, %46
  %48 = fmul float %47, 0x3EB0000000000000
  %49 = fpext float %48 to double
  %50 = tail call i32 (ptr, ...) @printf(ptr noundef nonnull dereferenceable(1) @.str.11, double noundef %49)
  %51 = load i32, ptr %34, align 8, !tbaa !60
  %52 = tail call i32 (ptr, ...) @printf(ptr noundef nonnull dereferenceable(1) @.str.12, i32 noundef %51)
  %53 = load ptr, ptr %0, align 8, !tbaa !3
  %54 = getelementptr inbounds nuw i8, ptr %53, i64 36
  %55 = load i32, ptr %54, align 4, !tbaa !61
  %.not34 = icmp eq i32 %55, 0
  br i1 %.not34, label %56, label %59

56:                                               ; preds = %5
  %57 = getelementptr inbounds nuw i8, ptr %53, i64 40
  %58 = load i32, ptr %57, align 4, !tbaa !62
  %.not35 = icmp eq i32 %58, 0
  br i1 %.not35, label %67, label %59

59:                                               ; preds = %56, %5
  %60 = getelementptr inbounds nuw i8, ptr %0, i64 260
  %61 = load i32, ptr %60, align 4, !tbaa !63
  %62 = tail call i32 (ptr, ...) @printf(ptr noundef nonnull dereferenceable(1) @.str.13, i32 noundef %61)
  %63 = load i32, ptr %34, align 8, !tbaa !60
  %64 = load i32, ptr %60, align 4, !tbaa !63
  %65 = sub nsw i32 %63, %64
  %66 = tail call i32 (ptr, ...) @printf(ptr noundef nonnull dereferenceable(1) @.str.14, i32 noundef %65)
  br label %67

67:                                               ; preds = %59, %56
  %68 = getelementptr inbounds nuw i8, ptr %0, i64 264
  %69 = load i32, ptr %68, align 8, !tbaa !64
  %70 = tail call i32 (ptr, ...) @printf(ptr noundef nonnull dereferenceable(1) @.str.15, i32 noundef %69)
  %71 = load ptr, ptr %0, align 8, !tbaa !3
  %72 = getelementptr inbounds nuw i8, ptr %71, i64 64
  %73 = load i32, ptr %72, align 4, !tbaa !44
  %.not36 = icmp eq i32 %73, 0
  br i1 %.not36, label %81, label %74

74:                                               ; preds = %67
  %75 = getelementptr inbounds nuw i8, ptr %71, i64 28
  %76 = load i32, ptr %75, align 4, !tbaa !25
  %.not37 = icmp eq i32 %76, 0
  br i1 %.not37, label %77, label %81

77:                                               ; preds = %74
  %78 = getelementptr inbounds nuw i8, ptr %0, i64 224
  %79 = load i32, ptr %78, align 8, !tbaa !65
  %80 = tail call i32 (ptr, ...) @printf(ptr noundef nonnull dereferenceable(1) @.str.16, i32 noundef %79)
  br label %81

81:                                               ; preds = %77, %74, %67
  tail call void (i32, ptr, ...) @Abc_Print(i32 poison, ptr noundef nonnull @.str.17, ptr noundef nonnull @.str.18)
  %82 = getelementptr inbounds nuw i8, ptr %0, i64 272
  %83 = load i64, ptr %82, align 8, !tbaa !66
  %84 = sitofp i64 %83 to double
  %85 = fdiv double %84, 1.000000e+06
  tail call void (i32, ptr, ...) @Abc_Print(i32 poison, ptr noundef nonnull @.str.19, double noundef %85)
  tail call void (i32, ptr, ...) @Abc_Print(i32 poison, ptr noundef nonnull @.str.17, ptr noundef nonnull @.str.20)
  %86 = getelementptr inbounds nuw i8, ptr %0, i64 280
  %87 = load i64, ptr %86, align 8, !tbaa !67
  %88 = sitofp i64 %87 to double
  %89 = fdiv double %88, 1.000000e+06
  tail call void (i32, ptr, ...) @Abc_Print(i32 poison, ptr noundef nonnull @.str.19, double noundef %89)
  tail call void (i32, ptr, ...) @Abc_Print(i32 poison, ptr noundef nonnull @.str.17, ptr noundef nonnull @.str.21)
  %90 = getelementptr inbounds nuw i8, ptr %0, i64 296
  %91 = load i64, ptr %90, align 8, !tbaa !68
  %92 = sitofp i64 %91 to double
  %93 = fdiv double %92, 1.000000e+06
  tail call void (i32, ptr, ...) @Abc_Print(i32 poison, ptr noundef nonnull @.str.19, double noundef %93)
  tail call void (i32, ptr, ...) @Abc_Print(i32 poison, ptr noundef nonnull @.str.17, ptr noundef nonnull @.str.22)
  %94 = getelementptr inbounds nuw i8, ptr %0, i64 288
  %95 = load i64, ptr %94, align 8, !tbaa !69
  %96 = sitofp i64 %95 to double
  %97 = fdiv double %96, 1.000000e+06
  tail call void (i32, ptr, ...) @Abc_Print(i32 poison, ptr noundef nonnull @.str.19, double noundef %97)
  tail call void (i32, ptr, ...) @Abc_Print(i32 poison, ptr noundef nonnull @.str.17, ptr noundef nonnull @.str.23)
  %98 = getelementptr inbounds nuw i8, ptr %0, i64 312
  %99 = load i64, ptr %98, align 8, !tbaa !70
  %100 = sitofp i64 %99 to double
  %101 = fdiv double %100, 1.000000e+06
  tail call void (i32, ptr, ...) @Abc_Print(i32 poison, ptr noundef nonnull @.str.19, double noundef %101)
  ret void
}